target datalayout = "e-m:e-p270:32:32-p271:32:32-p272:64:64-i64:64-i128:128-f80:128-n8:16:32:64-S128"
target triple = "x86_64-pc-linux-gnu"

%struct.Sbl_Man_t_ = type { ptr, ptr, i32, i32, i32, i32, i32, i32, i32, i32, i32, i32, i32, i32, i32, i32, i32, i32, i32, i32, i32, i32, ptr, ptr, ptr, ptr, ptr, ptr, ptr, ptr, ptr, ptr, ptr, ptr, ptr, ptr, ptr, ptr, ptr, ptr, ptr, ptr, ptr, ptr, ptr, ptr, ptr, ptr, ptr, ptr, ptr, i64, i64, i64, i64, i64, i64, i64, i64, i64, i64 }
%struct.Vec_Int_t_ = type { i32, i32, ptr }
%struct.timespec = type { i64, i64 }

; Function Attrs: nounwind uwtable
define internal void @Vec_IntClear(ptr noundef %0) #0 {
  %2 = alloca ptr, align 8
  store ptr %0, ptr %2, align 8
  %3 = load ptr, ptr %2, align 8
  %4 = getelementptr inbounds %struct.Vec_Int_t_, ptr %3, i32 0, i32 1
  store i32 0, ptr %4, align 4
  ret void
}

; Function Attrs: nounwind uwtable
define internal i64 @Abc_Clock() #0 {
  %1 = alloca i64, align 8
  %2 = alloca %struct.timespec, align 8
  %3 = alloca i64, align 8
  %4 = call i32 @clock_gettime(i32 noundef 1, ptr noundef %2) #12
  %5 = icmp slt i32 %4, 0
  br i1 %5, label %6, label %7

6:                                                ; preds = %0
  store i64 -1, ptr %1, align 8
  br label %18

7:                                                ; preds = %0
  %8 = getelementptr inbounds %struct.timespec, ptr %2, i32 0, i32 0
  %9 = load i64, ptr %8, align 8
  %10 = mul nsw i64 %9, 1000000
  store i64 %10, ptr %3, align 8
  %11 = getelementptr inbounds %struct.timespec, ptr %2, i32 0, i32 1
  %12 = load i64, ptr %11, align 8
  %13 = mul nsw i64 %12, 1000000
  %14 = sdiv i64 %13, 1000000000
  %15 = load i64, ptr %3, align 8
  %16 = add nsw i64 %15, %14
  store i64 %16, ptr %3, align 8
  %17 = load i64, ptr %3, align 8
  store i64 %17, ptr %1, align 8
  br label %18

18:                                               ; preds = %7, %6
  %19 = load i64, ptr %1, align 8
  ret i64 %19
}

; Function Attrs: nounwind uwtable
define i32 @Sbl_ManWindow2(ptr noundef %0, i32 noundef %1) #0 {
  %3 = alloca i32, align 4
  %4 = alloca ptr, align 8
  %5 = alloca i32, align 4
  %6 = alloca i64, align 8
  %7 = alloca ptr, align 8
  %8 = alloca ptr, align 8
  %9 = alloca ptr, align 8
  %10 = alloca ptr, align 8
  %11 = alloca i32, align 4
  store ptr %0, ptr %4, align 8
  store i32 %1, ptr %5, align 4
  %12 = call i64 @Abc_Clock()
  store i64 %12, ptr %6, align 8
  %13 = load ptr, ptr %4, align 8
  %14 = getelementptr inbounds %struct.Sbl_Man_t_, ptr %13, i32 0, i32 22
  %15 = load ptr, ptr %14, align 8
  %16 = load i32, ptr %5, align 4
  %17 = call i32 @Gia_ManComputeOneWin(ptr noundef %15, i32 noundef %16, ptr noundef %7, ptr noundef %8, ptr noundef %9, ptr noundef %10)
  store i32 %17, ptr %11, align 4
  %18 = call i64 @Abc_Clock()
  %19 = load i64, ptr %6, align 8
  %20 = sub nsw i64 %18, %19
  %21 = load ptr, ptr %4, align 8
  %22 = getelementptr inbounds %struct.Sbl_Man_t_, ptr %21, i32 0, i32 51
  %23 = load i64, ptr %22, align 8
  %24 = add nsw i64 %23, %20
  store i64 %24, ptr %22, align 8
  %25 = load i32, ptr %11, align 4
  %26 = icmp eq i32 %25, 0
  br i1 %26, label %27, label %28

27:                                               ; preds = %2
  store i32 0, ptr %3, align 4
  br label %58

28:                                               ; preds = %2
  %29 = load ptr, ptr %4, align 8
  %30 = getelementptr inbounds %struct.Sbl_Man_t_, ptr %29, i32 0, i32 26
  %31 = load ptr, ptr %30, align 8
  call void @Vec_IntClear(ptr noundef %31)
  %32 = load ptr, ptr %4, align 8
  %33 = getelementptr inbounds %struct.Sbl_Man_t_, ptr %32, i32 0, i32 26
  %34 = load ptr, ptr %33, align 8
  %35 = load ptr, ptr %7, align 8
  call void @Vec_IntAppend(ptr noundef %34, ptr noundef %35)
  %36 = load ptr, ptr %4, align 8
  %37 = getelementptr inbounds %struct.Sbl_Man_t_, ptr %36, i32 0, i32 25
  %38 = load ptr, ptr %37, align 8
  call void @Vec_IntClear(ptr noundef %38)
  %39 = load ptr, ptr %4, align 8
  %40 = getelementptr inbounds %struct.Sbl_Man_t_, ptr %39, i32 0, i32 25
  %41 = load ptr, ptr %40, align 8
  %42 = load ptr, ptr %8, align 8
  call void @Vec_IntAppend(ptr noundef %41, ptr noundef %42)
  %43 = load ptr, ptr %4, align 8
  %44 = getelementptr inbounds %struct.Sbl_Man_t_, ptr %43, i32 0, i32 23
  %45 = load ptr, ptr %44, align 8
  call void @Vec_IntClear(ptr noundef %45)
  %46 = load ptr, ptr %4, align 8
  %47 = getelementptr inbounds %struct.Sbl_Man_t_, ptr %46, i32 0, i32 23
  %48 = load ptr, ptr %47, align 8
  %49 = load ptr, ptr %9, align 8
  call void @Vec_IntAppend(ptr noundef %48, ptr noundef %49)
  %50 = load ptr, ptr %4, align 8
  %51 = getelementptr inbounds %struct.Sbl_Man_t_, ptr %50, i32 0, i32 24
  %52 = load ptr, ptr %51, align 8
  call void @Vec_IntClear(ptr noundef %52)
  %53 = load ptr, ptr %4, align 8
  %54 = getelementptr inbounds %struct.Sbl_Man_t_, ptr %53, i32 0, i32 24
  %55 = load ptr, ptr %54, align 8
  %56 = load ptr, ptr %10, align 8
  call void @Vec_IntAppend(ptr noundef %55, ptr noundef %56)
  %57 = load i32, ptr %11, align 4
  store i32 %57, ptr %3, align 4
  br label %58

58:                                               ; preds = %28, %27
  %59 = load i32, ptr %3, align 4
  ret i32 %59
}