; Function Attrs: nounwind uwtable
define i32 @Sbl_ManWindow2(ptr noundef captures(none) %0, i32 noundef %1) local_unnamed_addr #0 {
  %3 = alloca %struct.timespec, align 8
  %4 = alloca %struct.timespec, align 8
  %5 = alloca ptr, align 8
  %6 = alloca ptr, align 8
  %7 = alloca ptr, align 8
  %8 = alloca ptr, align 8
  call void @llvm.lifetime.start.p0(i64 16, ptr nonnull %4)
  %9 = call i32 @clock_gettime(i32 noundef 1, ptr noundef nonnull %4) #18
  %10 = icmp slt i32 %9, 0
  br i1 %10, label %Abc_Clock.exit, label %11

11:                                               ; preds = %2
  %12 = load i64, ptr %4, align 8
  %.neg17 = mul i64 %12, -1000000
  %13 = getelementptr inbounds nuw i8, ptr %4, i64 8
  %14 = load i64, ptr %13, align 8
  %.neg = sdiv i64 %14, -1000
  %.neg18 = add i64 %.neg, %.neg17
  br label %Abc_Clock.exit

Abc_Clock.exit:                                   ; preds = %2, %11
  %.0.i.neg = phi i64 [ %.neg18, %11 ], [ 1, %2 ]
  call void @llvm.lifetime.end.p0(i64 16, ptr nonnull %4)
  %15 = getelementptr inbounds nuw i8, ptr %0, i64 96
  %16 = load ptr, ptr %15, align 8
  %17 = call i32 @Gia_ManComputeOneWin(ptr noundef %16, i32 noundef %1, ptr noundef nonnull %5, ptr noundef nonnull %6, ptr noundef nonnull %7, ptr noundef nonnull %8) #18
  call void @llvm.lifetime.start.p0(i64 16, ptr nonnull %3)
  %18 = call i32 @clock_gettime(i32 noundef 1, ptr noundef nonnull %3) #18
  %19 = icmp slt i32 %18, 0
  br i1 %19, label %Abc_Clock.exit16, label %20

20:                                               ; preds = %Abc_Clock.exit
  %21 = load i64, ptr %3, align 8
  %22 = mul nsw i64 %21, 1000000
  %23 = getelementptr inbounds nuw i8, ptr %3, i64 8
  %24 = load i64, ptr %23, align 8
  %25 = sdiv i64 %24, 1000
  %26 = add nsw i64 %25, %22
  br label %Abc_Clock.exit16

Abc_Clock.exit16:                                 ; preds = %Abc_Clock.exit, %20
  %.0.i15 = phi i64 [ %26, %20 ], [ -1, %Abc_Clock.exit ]
  call void @llvm.lifetime.end.p0(i64 16, ptr nonnull %3)
  %27 = add i64 %.0.i15, %.0.i.neg
  %28 = getelementptr inbounds nuw i8, ptr %0, i64 328
  %29 = load i64, ptr %28, align 8
  %30 = add nsw i64 %27, %29
  store i64 %30, ptr %28, align 8
  %31 = icmp eq i32 %17, 0
  br i1 %31, label %53, label %32

32:                                               ; preds = %Abc_Clock.exit16
  %33 = getelementptr inbounds nuw i8, ptr %0, i64 128
  %34 = load ptr, ptr %33, align 8
  %35 = getelementptr inbounds nuw i8, ptr %34, i64 4
  store i32 0, ptr %35, align 4
  %36 = load ptr, ptr %33, align 8
  %37 = load ptr, ptr %5, align 8
  call fastcc void @Vec_IntAppend(ptr noundef %36, ptr noundef %37)
  %38 = getelementptr inbounds nuw i8, ptr %0, i64 120
  %39 = load ptr, ptr %38, align 8
  %40 = getelementptr inbounds nuw i8, ptr %39, i64 4
  store i32 0, ptr %40, align 4
  %41 = load ptr, ptr %38, align 8
  %42 = load ptr, ptr %6, align 8
  call fastcc void @Vec_IntAppend(ptr noundef %41, ptr noundef %42)
  %43 = getelementptr inbounds nuw i8, ptr %0, i64 104
  %44 = load ptr, ptr %43, align 8
  %45 = getelementptr inbounds nuw i8, ptr %44, i64 4
  store i32 0, ptr %45, align 4
  %46 = load ptr, ptr %43, align 8
  %47 = load ptr, ptr %7, align 8
  call fastcc void @Vec_IntAppend(ptr noundef %46, ptr noundef %47)
  %48 = getelementptr inbounds nuw i8, ptr %0, i64 112
  %49 = load ptr, ptr %48, align 8
  %50 = getelementptr inbounds nuw i8, ptr %49, i64 4
  store i32 0, ptr %50, align 4
  %51 = load ptr, ptr %48, align 8
  %52 = load ptr, ptr %8, align 8
  call fastcc void @Vec_IntAppend(ptr noundef %51, ptr noundef %52)
  br label %53

53:                                               ; preds = %Abc_Clock.exit16, %32
  ret i32 %17
}